target datalayout = "e-m:e-p270:32:32-p271:32:32-p272:64:64-i64:64-i128:128-f80:128-n8:16:32:64-S128"
target triple = "x86_64-pc-linux-gnu"

%struct.ZSTD_outBuffer_s = type { ptr, i64, i64 }
%struct.ZSTD_inBuffer_s = type { ptr, i64, i64 }

; Function Attrs: nounwind uwtable
define i64 @ZSTD_decompressStream_simpleArgs(ptr noundef %0, ptr noundef %1, i64 noundef %2, ptr noundef %3, ptr noundef %4, i64 noundef %5, ptr noundef %6) #0 {
  %8 = alloca ptr, align 8
  %9 = alloca ptr, align 8
  %10 = alloca i64, align 8
  %11 = alloca ptr, align 8
  %12 = alloca ptr, align 8
  %13 = alloca i64, align 8
  %14 = alloca ptr, align 8
  %15 = alloca %struct.ZSTD_outBuffer_s, align 8
  %16 = alloca %struct.ZSTD_inBuffer_s, align 8
  %17 = alloca i64, align 8
  store ptr %0, ptr %8, align 8, !tbaa !3
  store ptr %1, ptr %9, align 8, !tbaa !23
  store i64 %2, ptr %10, align 8, !tbaa !24
  store ptr %3, ptr %11, align 8, !tbaa !157
  store ptr %4, ptr %12, align 8, !tbaa !23
  store i64 %5, ptr %13, align 8, !tbaa !24
  store ptr %6, ptr %14, align 8, !tbaa !157
  call void @llvm.lifetime.start.p0(i64 24, ptr %15) #11
  call void @llvm.lifetime.start.p0(i64 24, ptr %16) #11
  %18 = load ptr, ptr %9, align 8, !tbaa !23
  %19 = getelementptr inbounds nuw %struct.ZSTD_outBuffer_s, ptr %15, i32 0, i32 0
  store ptr %18, ptr %19, align 8, !tbaa !135
  %20 = load i64, ptr %10, align 8, !tbaa !24
  %21 = getelementptr inbounds nuw %struct.ZSTD_outBuffer_s, ptr %15, i32 0, i32 1
  store i64 %20, ptr %21, align 8, !tbaa !137
  %22 = load ptr, ptr %11, align 8, !tbaa !157
  %23 = load i64, ptr %22, align 8, !tbaa !24
  %24 = getelementptr inbounds nuw %struct.ZSTD_outBuffer_s, ptr %15, i32 0, i32 2
  store i64 %23, ptr %24, align 8, !tbaa !136
  %25 = load ptr, ptr %12, align 8, !tbaa !23
  %26 = getelementptr inbounds nuw %struct.ZSTD_inBuffer_s, ptr %16, i32 0, i32 0
  store ptr %25, ptr %26, align 8, !tbaa !131
  %27 = load i64, ptr %13, align 8, !tbaa !24
  %28 = getelementptr inbounds nuw %struct.ZSTD_inBuffer_s, ptr %16, i32 0, i32 1
  store i64 %27, ptr %28, align 8, !tbaa !134
  %29 = load ptr, ptr %14, align 8, !tbaa !157
  %30 = load i64, ptr %29, align 8, !tbaa !24
  %31 = getelementptr inbounds nuw %struct.ZSTD_inBuffer_s, ptr %16, i32 0, i32 2
  store i64 %30, ptr %31, align 8, !tbaa !133
  call void @llvm.lifetime.start.p0(i64 8, ptr %17) #11
  %32 = load ptr, ptr %8, align 8, !tbaa !3
  %33 = call i64 @ZSTD_decompressStream(ptr noundef %32, ptr noundef %15, ptr noundef %16)
  store i64 %33, ptr %17, align 8, !tbaa !24
  %34 = getelementptr inbounds nuw %struct.ZSTD_outBuffer_s, ptr %15, i32 0, i32 2
  %35 = load i64, ptr %34, align 8, !tbaa !136
  %36 = load ptr, ptr %11, align 8, !tbaa !157
  store i64 %35, ptr %36, align 8, !tbaa !24
  %37 = getelementptr inbounds nuw %struct.ZSTD_inBuffer_s, ptr %16, i32 0, i32 2
  %38 = load i64, ptr %37, align 8, !tbaa !133
  %39 = load ptr, ptr %14, align 8, !tbaa !157
  store i64 %38, ptr %39, align 8, !tbaa !24
  %40 = load i64, ptr %17, align 8, !tbaa !24
  call void @llvm.lifetime.end.p0(i64 8, ptr %17) #11
  call void @llvm.lifetime.end.p0(i64 24, ptr %16) #11
  call void @llvm.lifetime.end.p0(i64 24, ptr %15) #11
  ret i64 %40
}